target datalayout = "e-m:e-p270:32:32-p271:32:32-p272:64:64-i64:64-i128:128-f80:128-n8:16:32:64-S128"
target triple = "x86_64-pc-linux-gnu"

%"struct.open_spiel::phantom_go::PhantomGoBoard::Chain" = type { i32, i16, i16, i16 }

; Function Attrs: mustprogress nounwind uwtable
define void @_ZN10open_spiel10phantom_go14PhantomGoBoard5Chain12reset_borderEv(ptr noundef nonnull align 4 dereferenceable(12) %0) #4 align 2 {
  %2 = alloca ptr, align 8
  store ptr %0, ptr %2, align 8
  %3 = load ptr, ptr %2, align 8
  %4 = getelementptr inbounds nuw %"struct.open_spiel::phantom_go::PhantomGoBoard::Chain", ptr %3, i32 0, i32 2
  store i16 0, ptr %4, align 2
  %5 = getelementptr inbounds nuw %"struct.open_spiel::phantom_go::PhantomGoBoard::Chain", ptr %3, i32 0, i32 3
  store i16 4, ptr %5, align 4
  %6 = getelementptr inbounds nuw %"struct.open_spiel::phantom_go::PhantomGoBoard::Chain", ptr %3, i32 0, i32 1
  store i16 -32768, ptr %6, align 4
  %7 = getelementptr inbounds nuw %"struct.open_spiel::phantom_go::PhantomGoBoard::Chain", ptr %3, i32 0, i32 0
  store i32 -2147483648, ptr %7, align 4
  ret void
}