; Function Attrs: mustprogress nofree norecurse nosync nounwind willreturn memory(argmem: write) uwtable
define void @_ZN10open_spiel10phantom_go14PhantomGoBoard5Chain12reset_borderEv(ptr nocapture noundef nonnull writeonly align 4 dereferenceable(12) %0) local_unnamed_addr #3 align 2 {
  %2 = getelementptr inbounds nuw i8, ptr %0, i64 6
  store i16 0, ptr %2, align 2
  %3 = getelementptr inbounds nuw i8, ptr %0, i64 8
  store i16 4, ptr %3, align 4
  %4 = getelementptr inbounds nuw i8, ptr %0, i64 4
  store i16 -32768, ptr %4, align 4
  store i32 -2147483648, ptr %0, align 4
  ret void
}